target datalayout = "e-m:e-p270:32:32-p271:32:32-p272:64:64-i64:64-i128:128-f80:128-n8:16:32:64-S128"
target triple = "x86_64-unknown-linux-gnu"

%struct.iovec = type { ptr, i64 }
%struct.QEMUIOVector = type { ptr, i32, %union.anon }
%union.anon = type { %struct.anon }
%struct.anon = type { i32, %struct.iovec }
%struct.anon.0 = type { [12 x i8], i64 }

; Function Attrs: nounwind sspstrong uwtable
define dso_local void @qemu_iovec_init(ptr noundef %qiov, i32 noundef %alloc_hint) #0 {
entry:
  %qiov.addr = alloca ptr, align 8
  %alloc_hint.addr = alloca i32, align 4
  store ptr %qiov, ptr %qiov.addr, align 8
  store i32 %alloc_hint, ptr %alloc_hint.addr, align 4
  %0 = load i32, ptr %alloc_hint.addr, align 4
  %conv = sext i32 %0 to i64
  %call = call noalias ptr @g_malloc_n(i64 noundef %conv, i64 noundef 16) #10
  %1 = load ptr, ptr %qiov.addr, align 8
  %iov = getelementptr inbounds %struct.QEMUIOVector, ptr %1, i32 0, i32 0
  store ptr %call, ptr %iov, align 8
  %2 = load ptr, ptr %qiov.addr, align 8
  %niov = getelementptr inbounds %struct.QEMUIOVector, ptr %2, i32 0, i32 1
  store i32 0, ptr %niov, align 8
  %3 = load i32, ptr %alloc_hint.addr, align 4
  %4 = load ptr, ptr %qiov.addr, align 8
  %5 = getelementptr inbounds %struct.QEMUIOVector, ptr %4, i32 0, i32 2
  %nalloc = getelementptr inbounds %struct.anon, ptr %5, i32 0, i32 0
  store i32 %3, ptr %nalloc, align 8
  %6 = load ptr, ptr %qiov.addr, align 8
  %7 = getelementptr inbounds %struct.QEMUIOVector, ptr %6, i32 0, i32 2
  %size = getelementptr inbounds %struct.anon.0, ptr %7, i32 0, i32 1
  store i64 0, ptr %size, align 8
  ret void
}