; Function Attrs: nounwind sspstrong uwtable
define dso_local void @qemu_iovec_init(ptr noundef writeonly captures(none) initializes((0, 12), (16, 20), (32, 40)) %qiov, i32 noundef %alloc_hint) local_unnamed_addr #0 {
entry:
  %conv = sext i32 %alloc_hint to i64
  %call = tail call noalias ptr @g_malloc_n(i64 noundef %conv, i64 noundef 16) #18
  store ptr %call, ptr %qiov, align 8
  %niov = getelementptr inbounds nuw i8, ptr %qiov, i64 8
  store i32 0, ptr %niov, align 8
  %0 = getelementptr inbounds nuw i8, ptr %qiov, i64 16
  store i32 %alloc_hint, ptr %0, align 8
  %size = getelementptr inbounds nuw i8, ptr %qiov, i64 32
  store i64 0, ptr %size, align 8
  ret void
}